; Function Attrs: mustprogress nounwind uwtable
define dso_local noundef zeroext i1 @_ZN4node6crypto4Hash8HashInitEPK9evp_md_stN2v85MaybeIjEE(ptr nocapture noundef nonnull align 8 dereferenceable(72) %this, ptr noundef %md, i64 %xof_md_len.coerce) local_unnamed_addr #3 align 2 {
entry:
  %xof_md_len.sroa.45.0.extract.shift = lshr i64 %xof_md_len.coerce, 32
  %xof_md_len.sroa.45.0.extract.trunc = trunc i64 %xof_md_len.sroa.45.0.extract.shift to i32
  %mdctx_ = getelementptr inbounds i8, ptr %this, i64 32
  %call = tail call ptr @EVP_MD_CTX_new() #21
  %0 = load ptr, ptr %mdctx_, align 8
  store ptr %call, ptr %mdctx_, align 8
  %tobool.not.i.i = icmp eq ptr %0, null
  br i1 %tobool.not.i.i, label %_ZNSt10unique_ptrI13evp_md_ctx_stN4node15FunctionDeleterIS0_XadL_Z15EVP_MD_CTX_freeEEEEE5resetEPS0_.exit, label %if.then.i.i

if.then.i.i:                                      ; preds = %entry
  tail call void @EVP_MD_CTX_free(ptr noundef nonnull %0) #21
  %.pr = load ptr, ptr %mdctx_, align 8
  br label %_ZNSt10unique_ptrI13evp_md_ctx_stN4node15FunctionDeleterIS0_XadL_Z15EVP_MD_CTX_freeEEEEE5resetEPS0_.exit

_ZNSt10unique_ptrI13evp_md_ctx_stN4node15FunctionDeleterIS0_XadL_Z15EVP_MD_CTX_freeEEEEE5resetEPS0_.exit: ; preds = %entry, %if.then.i.i
  %1 = phi ptr [ %call, %entry ], [ %.pr, %if.then.i.i ]
  %cmp.i.not = icmp eq ptr %1, null
  br i1 %cmp.i.not, label %if.then.thread, label %lor.lhs.false

if.then.thread:                                   ; preds = %_ZNSt10unique_ptrI13evp_md_ctx_stN4node15FunctionDeleterIS0_XadL_Z15EVP_MD_CTX_freeEEEEE5resetEPS0_.exit
  store ptr null, ptr %mdctx_, align 8
  br label %return

lor.lhs.false:                                    ; preds = %_ZNSt10unique_ptrI13evp_md_ctx_stN4node15FunctionDeleterIS0_XadL_Z15EVP_MD_CTX_freeEEEEE5resetEPS0_.exit
  %call6 = tail call i32 @EVP_DigestInit_ex(ptr noundef nonnull %1, ptr noundef %md, ptr noundef null) #21
  %cmp = icmp slt i32 %call6, 1
  br i1 %cmp, label %if.then, label %if.end

if.then:                                          ; preds = %lor.lhs.false
  %.pre = load ptr, ptr %mdctx_, align 8
  store ptr null, ptr %mdctx_, align 8
  %tobool.not.i.i7 = icmp eq ptr %.pre, null
  br i1 %tobool.not.i.i7, label %return, label %if.then.i.i8

if.then.i.i8:                                     ; preds = %if.then
  tail call void @EVP_MD_CTX_free(ptr noundef nonnull %.pre) #21
  br label %return

if.end:                                           ; preds = %lor.lhs.false
  %call8 = tail call i32 @EVP_MD_get_size(ptr noundef %md) #21
  %md_len_ = getelementptr inbounds i8, ptr %this, i64 40
  store i32 %call8, ptr %md_len_, align 8
  %2 = and i64 %xof_md_len.coerce, 1
  %tobool.i.not = icmp eq i64 %2, 0
  %cmp12.not = icmp eq i32 %call8, %xof_md_len.sroa.45.0.extract.trunc
  %or.cond = select i1 %tobool.i.not, i1 true, i1 %cmp12.not
  br i1 %or.cond, label %return, label %if.then13

if.then13:                                        ; preds = %if.end
  %call14 = tail call i64 @EVP_MD_get_flags(ptr noundef %md) #21
  %and = and i64 %call14, 2
  %cmp15 = icmp eq i64 %and, 0
  br i1 %cmp15, label %if.then16, label %_ZNKR2v85MaybeIjE8FromJustEv.exit

if.then16:                                        ; preds = %if.then13
  tail call void @ERR_new() #21
  tail call void @ERR_set_debug(ptr noundef nonnull @.str.12, i32 noundef 130, ptr noundef nonnull @.str.13) #21
  tail call void (i32, i32, ptr, ...) @ERR_set_error(i32 noundef 6, i32 noundef 178, ptr noundef null) #21
  br label %return

_ZNKR2v85MaybeIjE8FromJustEv.exit:                ; preds = %if.then13
  store i32 %xof_md_len.sroa.45.0.extract.trunc, ptr %md_len_, align 8
  br label %return

return:                                           ; preds = %if.then.thread, %if.then.i.i8, %if.then, %if.end, %_ZNKR2v85MaybeIjE8FromJustEv.exit, %if.then16
  %retval.0 = phi i1 [ false, %if.then16 ], [ true, %_ZNKR2v85MaybeIjE8FromJustEv.exit ], [ true, %if.end ], [ false, %if.then ], [ false, %if.then.i.i8 ], [ false, %if.then.thread ]
  ret i1 %retval.0
}